; Function Attrs: mustprogress uwtable
define void @_ZN6icu_774CStrC2ERKNS_13UnicodeStringE(ptr noundef nonnull align 8 dereferenceable(72) %0, ptr noundef nonnull align 8 dereferenceable(64) %1) unnamed_addr #1 align 2 personality ptr @__gxx_personality_v0 {
  %3 = alloca i32, align 4
  %4 = alloca i32, align 4
  %5 = getelementptr inbounds nuw i8, ptr %0, i64 8
  tail call void @_ZN6icu_7715MaybeStackArrayIcLi40EEC1Ev(ptr noundef nonnull align 8 dereferenceable(60) %5)
  %6 = getelementptr inbounds nuw i8, ptr %0, i64 64
  store i32 0, ptr %6, align 8, !tbaa !15
  %7 = load ptr, ptr %5, align 8, !tbaa !3
  store i8 0, ptr %7, align 1, !tbaa !17
  call void @llvm.lifetime.start.p0(i64 4, ptr nonnull %3) #12
  store i32 0, ptr %3, align 4, !tbaa !13
  %8 = getelementptr inbounds nuw i8, ptr %1, i64 8
  %9 = load i16, ptr %8, align 8, !tbaa !17
  %10 = icmp slt i16 %9, 0
  %11 = ashr i16 %9, 5
  %12 = sext i16 %11 to i32
  %13 = getelementptr inbounds nuw i8, ptr %1, i64 12
  %14 = load i32, ptr %13, align 4
  %15 = select i1 %10, i32 %14, i32 %12
  %16 = invoke noundef i32 @_ZNK6icu_7713UnicodeString7extractEiiPcj(ptr noundef nonnull align 8 dereferenceable(64) %1, i32 noundef 0, i32 noundef %15, ptr noundef null, i32 noundef 0)
          to label %17 unwind label %33

17:                                               ; preds = %2
  call void @llvm.lifetime.start.p0(i64 4, ptr nonnull %4) #12
  store i32 0, ptr %4, align 4, !tbaa !12
  %18 = invoke noundef ptr @_ZN6icu_7710CharString15getAppendBufferEiiRiR10UErrorCode(ptr noundef nonnull align 8 dereferenceable(60) %5, i32 noundef %16, i32 noundef %16, ptr noundef nonnull align 4 dereferenceable(4) %4, ptr noundef nonnull align 4 dereferenceable(4) %3)
          to label %19 unwind label %35

19:                                               ; preds = %17
  %20 = load i32, ptr %3, align 4, !tbaa !13
  %21 = icmp sgt i32 %20, 0
  br i1 %21, label %37, label %22

22:                                               ; preds = %19
  %23 = load i16, ptr %8, align 8, !tbaa !17
  %24 = icmp slt i16 %23, 0
  %25 = ashr i16 %23, 5
  %26 = sext i16 %25 to i32
  %27 = load i32, ptr %13, align 4
  %28 = select i1 %24, i32 %27, i32 %26
  %29 = load i32, ptr %4, align 4, !tbaa !12
  %30 = invoke noundef i32 @_ZNK6icu_7713UnicodeString7extractEiiPcj(ptr noundef nonnull align 8 dereferenceable(64) %1, i32 noundef 0, i32 noundef %28, ptr noundef %18, i32 noundef %29)
          to label %31 unwind label %35

31:                                               ; preds = %22
  %32 = invoke noundef nonnull align 8 dereferenceable(60) ptr @_ZN6icu_7710CharString6appendEPKciR10UErrorCode(ptr noundef nonnull align 8 dereferenceable(60) %5, ptr noundef %18, i32 noundef %16, ptr noundef nonnull align 4 dereferenceable(4) %3)
          to label %37 unwind label %35

33:                                               ; preds = %2
  %34 = landingpad { ptr, i32 }
          cleanup
  br label %38

35:                                               ; preds = %31, %22, %17
  %36 = landingpad { ptr, i32 }
          cleanup
  call void @llvm.lifetime.end.p0(i64 4, ptr nonnull %4) #12
  br label %38

37:                                               ; preds = %31, %19
  call void @llvm.lifetime.end.p0(i64 4, ptr nonnull %4) #12
  call void @llvm.lifetime.end.p0(i64 4, ptr nonnull %3) #12
  ret void

38:                                               ; preds = %35, %33
  %.pn = phi { ptr, i32 } [ %36, %35 ], [ %34, %33 ]
  call void @llvm.lifetime.end.p0(i64 4, ptr nonnull %3) #12
  call void @_ZN6icu_7715MaybeStackArrayIcLi40EED1Ev(ptr noundef nonnull align 8 dereferenceable(60) %5) #12
  resume { ptr, i32 } %.pn
}